; Function Attrs: nounwind uwtable
define void @EVP_CIPHER_meth_free(ptr noundef %0) local_unnamed_addr #0 {
  %2 = icmp eq ptr %0, null
  br i1 %2, label %7, label %3

3:                                                ; preds = %1
  %4 = getelementptr inbounds nuw i8, ptr %0, i64 24
  %5 = load i32, ptr %4, align 8, !tbaa !15
  %.not = icmp eq i32 %5, 2
  br i1 %.not, label %6, label %7

6:                                                ; preds = %3
  tail call void @evp_cipher_free_int(ptr noundef nonnull %0) #5
  br label %7

7:                                                ; preds = %1, %3, %6
  ret void
}